target datalayout = "e-m:e-p270:32:32-p271:32:32-p272:64:64-i64:64-i128:128-f80:128-n8:16:32:64-S128"
target triple = "x86_64-pc-linux-gnu"

@json_enum_option.bool_options = internal global [3 x ptr] [ptr @.str.94, ptr @.str.95, ptr null], align 16

; Function Attrs: nounwind uwtable
define internal i32 @json_enum_option(ptr noundef %0, i32 noundef %1, ptr noundef %2, ptr noundef %3, i32 noundef %4) #0 {
  %6 = alloca ptr, align 8
  %7 = alloca i32, align 4
  %8 = alloca ptr, align 8
  %9 = alloca ptr, align 8
  %10 = alloca i32, align 4
  store ptr %0, ptr %6, align 8, !tbaa !4
  store i32 %1, ptr %7, align 4, !tbaa !9
  store ptr %2, ptr %8, align 8, !tbaa !64
  store ptr %3, ptr %9, align 8, !tbaa !66
  store i32 %4, ptr %10, align 4, !tbaa !9
  %11 = load ptr, ptr %9, align 8, !tbaa !66
  %12 = icmp ne ptr %11, null
  br i1 %12, label %14, label %13

13:                                               ; preds = %5
  store ptr @json_enum_option.bool_options, ptr %9, align 8, !tbaa !66
  store i32 1, ptr %10, align 4, !tbaa !9
  br label %14

14:                                               ; preds = %13, %5
  %15 = load ptr, ptr %6, align 8, !tbaa !4
  %16 = load i32, ptr %7, align 4, !tbaa !9
  %17 = call i32 @lua_type(ptr noundef %15, i32 noundef %16)
  %18 = icmp eq i32 %17, 0
  br i1 %18, label %41, label %19

19:                                               ; preds = %14
  %20 = load i32, ptr %10, align 4, !tbaa !9
  %21 = icmp ne i32 %20, 0
  br i1 %21, label %22, label %34

22:                                               ; preds = %19
  %23 = load ptr, ptr %6, align 8, !tbaa !4
  %24 = load i32, ptr %7, align 4, !tbaa !9
  %25 = call i32 @lua_type(ptr noundef %23, i32 noundef %24)
  %26 = icmp eq i32 %25, 1
  br i1 %26, label %27, label %34

27:                                               ; preds = %22
  %28 = load ptr, ptr %6, align 8, !tbaa !4
  %29 = load i32, ptr %7, align 4, !tbaa !9
  %30 = call i32 @lua_toboolean(ptr noundef %28, i32 noundef %29)
  %31 = load i32, ptr %10, align 4, !tbaa !9
  %32 = mul nsw i32 %30, %31
  %33 = load ptr, ptr %8, align 8, !tbaa !64
  store i32 %32, ptr %33, align 4, !tbaa !9
  br label %40

34:                                               ; preds = %22, %19
  %35 = load ptr, ptr %6, align 8, !tbaa !4
  %36 = load i32, ptr %7, align 4, !tbaa !9
  %37 = load ptr, ptr %9, align 8, !tbaa !66
  %38 = call i32 @luaL_checkoption(ptr noundef %35, i32 noundef %36, ptr noundef null, ptr noundef %37)
  %39 = load ptr, ptr %8, align 8, !tbaa !64
  store i32 %38, ptr %39, align 4, !tbaa !9
  br label %40

40:                                               ; preds = %34, %27
  br label %41

41:                                               ; preds = %40, %14
  %42 = load i32, ptr %10, align 4, !tbaa !9
  %43 = icmp ne i32 %42, 0
  br i1 %43, label %44, label %57

44:                                               ; preds = %41
  %45 = load ptr, ptr %8, align 8, !tbaa !64
  %46 = load i32, ptr %45, align 4, !tbaa !9
  %47 = icmp eq i32 %46, 0
  br i1 %47, label %53, label %48

48:                                               ; preds = %44
  %49 = load ptr, ptr %8, align 8, !tbaa !64
  %50 = load i32, ptr %49, align 4, !tbaa !9
  %51 = load i32, ptr %10, align 4, !tbaa !9
  %52 = icmp eq i32 %50, %51
  br i1 %52, label %53, label %57

53:                                               ; preds = %48, %44
  %54 = load ptr, ptr %6, align 8, !tbaa !4
  %55 = load ptr, ptr %8, align 8, !tbaa !64
  %56 = load i32, ptr %55, align 4, !tbaa !9
  call void @lua_pushboolean(ptr noundef %54, i32 noundef %56)
  br label %65

57:                                               ; preds = %48, %41
  %58 = load ptr, ptr %6, align 8, !tbaa !4
  %59 = load ptr, ptr %9, align 8, !tbaa !66
  %60 = load ptr, ptr %8, align 8, !tbaa !64
  %61 = load i32, ptr %60, align 4, !tbaa !9
  %62 = sext i32 %61 to i64
  %63 = getelementptr inbounds ptr, ptr %59, i64 %62
  %64 = load ptr, ptr %63, align 8, !tbaa !11
  call void @lua_pushstring(ptr noundef %58, ptr noundef %64)
  br label %65

65:                                               ; preds = %57, %53
  ret i32 1
}