; Function Attrs: nounwind uwtable
define internal fastcc void @json_enum_option(ptr noundef %0, ptr noundef captures(none) %1, ptr noundef %2) unnamed_addr #0 {
  %.not = icmp eq ptr %2, null
  %spec.select = select i1 %.not, ptr @json_enum_option.bool_options, ptr %2
  %4 = tail call i32 @lua_type(ptr noundef %0, i32 noundef 1) #12
  %5 = icmp eq i32 %4, 0
  br i1 %5, label %thread-pre-split, label %6

6:                                                ; preds = %3
  %7 = tail call i32 @lua_type(ptr noundef %0, i32 noundef 1) #12
  %8 = icmp eq i32 %7, 1
  br i1 %8, label %9, label %11

9:                                                ; preds = %6
  %10 = tail call i32 @lua_toboolean(ptr noundef %0, i32 noundef 1) #12
  store i32 %10, ptr %1, align 4, !tbaa !21
  br label %13

11:                                               ; preds = %6
  %12 = tail call i32 @luaL_checkoption(ptr noundef %0, i32 noundef 1, ptr noundef null, ptr noundef nonnull %spec.select) #12
  store i32 %12, ptr %1, align 4, !tbaa !21
  br label %13

thread-pre-split:                                 ; preds = %3
  %.pr = load i32, ptr %1, align 4, !tbaa !21
  br label %13

13:                                               ; preds = %thread-pre-split, %11, %9
  %14 = phi i32 [ %.pr, %thread-pre-split ], [ %12, %11 ], [ %10, %9 ]
  %switch = icmp ult i32 %14, 2
  br i1 %switch, label %15, label %16

15:                                               ; preds = %13
  tail call void @lua_pushboolean(ptr noundef %0, i32 noundef %14) #12
  br label %20

16:                                               ; preds = %13
  %17 = sext i32 %14 to i64
  %18 = getelementptr inbounds ptr, ptr %spec.select, i64 %17
  %19 = load ptr, ptr %18, align 8, !tbaa !30
  tail call void @lua_pushstring(ptr noundef %0, ptr noundef %19) #12
  br label %20

20:                                               ; preds = %16, %15
  ret void
}